; Function Attrs: uwtable
define internal void @__cxx_global_var_init.1() #3 section ".text.startup" comdat($_ZN10open_spiel5chess19kDefaultStandardFENB5cxx11E) personality ptr @__gxx_personality_v0 {
  %1 = alloca %"class.std::allocator", align 1
  %2 = load atomic i8, ptr @_ZGVN10open_spiel5chess19kDefaultStandardFENB5cxx11E acquire, align 8
  %3 = icmp eq i8 %2, 0
  br i1 %3, label %4, label %11

4:                                                ; preds = %0
  %5 = tail call i32 @__cxa_guard_acquire(ptr nonnull @_ZGVN10open_spiel5chess19kDefaultStandardFENB5cxx11E) #27
  %.not = icmp eq i32 %5, 0
  br i1 %.not, label %11, label %6

6:                                                ; preds = %4
  call void @_ZNSaIcEC1Ev(ptr noundef nonnull align 1 dereferenceable(1) %1) #27
  %7 = invoke noundef ptr @_ZNSt7__cxx1112basic_stringIcSt11char_traitsIcESaIcEE13_M_local_dataEv(ptr noundef nonnull align 8 dereferenceable(32) @_ZN10open_spiel5chess19kDefaultStandardFENB5cxx11E)
          to label %.noexc unwind label %12

.noexc:                                           ; preds = %6
  invoke void @_ZNSt7__cxx1112basic_stringIcSt11char_traitsIcESaIcEE12_Alloc_hiderC1EPcRKS3_(ptr noundef nonnull align 8 dereferenceable(8) @_ZN10open_spiel5chess19kDefaultStandardFENB5cxx11E, ptr noundef %7, ptr noundef nonnull align 1 dereferenceable(1) %1)
          to label %.noexc1 unwind label %12

.noexc1:                                          ; preds = %.noexc
  invoke void @_ZNSt7__cxx1112basic_stringIcSt11char_traitsIcESaIcEE12_M_constructIPKcEEvT_S8_St20forward_iterator_tag(ptr noundef nonnull align 8 dereferenceable(32) @_ZN10open_spiel5chess19kDefaultStandardFENB5cxx11E, ptr noundef nonnull @.str, ptr noundef nonnull getelementptr inbounds nuw (i8, ptr @.str, i64 56))
          to label %_ZNSt7__cxx1112basic_stringIcSt11char_traitsIcESaIcEEC2IS3_EEPKcRKS3_.exit unwind label %8

8:                                                ; preds = %.noexc1
  %9 = landingpad { ptr, i32 }
          cleanup
  call void @_ZNSaIcED2Ev(ptr noundef nonnull align 8 dereferenceable(8) @_ZN10open_spiel5chess19kDefaultStandardFENB5cxx11E) #27
  br label %.body

_ZNSt7__cxx1112basic_stringIcSt11char_traitsIcESaIcEEC2IS3_EEPKcRKS3_.exit: ; preds = %.noexc1
  call void @_ZNSaIcED1Ev(ptr noundef nonnull align 1 dereferenceable(1) %1) #27
  %10 = call i32 @__cxa_atexit(ptr nonnull @_ZNSt7__cxx1112basic_stringIcSt11char_traitsIcESaIcEED1Ev, ptr nonnull @_ZN10open_spiel5chess19kDefaultStandardFENB5cxx11E, ptr nonnull @__dso_handle) #27
  call void @__cxa_guard_release(ptr nonnull @_ZGVN10open_spiel5chess19kDefaultStandardFENB5cxx11E) #27
  br label %11

11:                                               ; preds = %_ZNSt7__cxx1112basic_stringIcSt11char_traitsIcESaIcEEC2IS3_EEPKcRKS3_.exit, %4, %0
  ret void

12:                                               ; preds = %.noexc, %6
  %13 = landingpad { ptr, i32 }
          cleanup
  br label %.body

.body:                                            ; preds = %8, %12
  %eh.lpad-body = phi { ptr, i32 } [ %13, %12 ], [ %9, %8 ]
  call void @_ZNSaIcED1Ev(ptr noundef nonnull align 1 dereferenceable(1) %1) #27
  call void @__cxa_guard_abort(ptr nonnull @_ZGVN10open_spiel5chess19kDefaultStandardFENB5cxx11E) #27
  resume { ptr, i32 } %eh.lpad-body
}